target datalayout = "e-m:e-p270:32:32-p271:32:32-p272:64:64-i64:64-i128:128-f80:128-n8:16:32:64-S128"
target triple = "x86_64-pc-linux-gnu"

%"struct.Imf_3_4::Channel" = type <{ i32, i32, i32, i8, [3 x i8] }>

; Function Attrs: mustprogress nounwind uwtable
define void @_ZN7Imf_3_47ChannelC2ENS_9PixelTypeEiib(ptr noundef nonnull align 4 dereferenceable(13) %0, i32 noundef %1, i32 noundef %2, i32 noundef %3, i1 noundef zeroext %4) unnamed_addr #0 align 2 {
  %6 = alloca ptr, align 8
  %7 = alloca i32, align 4
  %8 = alloca i32, align 4
  %9 = alloca i32, align 4
  %10 = alloca i8, align 1
  store ptr %0, ptr %6, align 8, !tbaa !3
  store i32 %1, ptr %7, align 4, !tbaa !8
  store i32 %2, ptr %8, align 4, !tbaa !10
  store i32 %3, ptr %9, align 4, !tbaa !10
  %11 = zext i1 %4 to i8
  store i8 %11, ptr %10, align 1, !tbaa !12
  %12 = load ptr, ptr %6, align 8
  %13 = getelementptr inbounds nuw %"struct.Imf_3_4::Channel", ptr %12, i32 0, i32 0
  %14 = load i32, ptr %7, align 4, !tbaa !8
  store i32 %14, ptr %13, align 4, !tbaa !14
  %15 = getelementptr inbounds nuw %"struct.Imf_3_4::Channel", ptr %12, i32 0, i32 1
  %16 = load i32, ptr %8, align 4, !tbaa !10
  store i32 %16, ptr %15, align 4, !tbaa !16
  %17 = getelementptr inbounds nuw %"struct.Imf_3_4::Channel", ptr %12, i32 0, i32 2
  %18 = load i32, ptr %9, align 4, !tbaa !10
  store i32 %18, ptr %17, align 4, !tbaa !17
  %19 = getelementptr inbounds nuw %"struct.Imf_3_4::Channel", ptr %12, i32 0, i32 3
  %20 = load i8, ptr %10, align 1, !tbaa !12, !range !18, !noundef !19
  %21 = trunc i8 %20 to i1
  %22 = zext i1 %21 to i8
  store i8 %22, ptr %19, align 4, !tbaa !20
  ret void
}