; Function Attrs: mustprogress nofree norecurse nosync nounwind willreturn memory(argmem: write) uwtable
define void @_ZN7Imf_3_47ChannelC2ENS_9PixelTypeEiib(ptr noundef nonnull writeonly align 4 captures(none) dereferenceable(13) initializes((0, 13)) %0, i32 noundef %1, i32 noundef %2, i32 noundef %3, i1 noundef zeroext %4) unnamed_addr #0 align 2 {
  %6 = zext i1 %4 to i8
  store i32 %1, ptr %0, align 4, !tbaa !3
  %7 = getelementptr inbounds nuw i8, ptr %0, i64 4
  store i32 %2, ptr %7, align 4, !tbaa !10
  %8 = getelementptr inbounds nuw i8, ptr %0, i64 8
  store i32 %3, ptr %8, align 4, !tbaa !11
  %9 = getelementptr inbounds nuw i8, ptr %0, i64 12
  store i8 %6, ptr %9, align 4, !tbaa !12
  ret void
}